target datalayout = "e-m:e-p270:32:32-p271:32:32-p272:64:64-i64:64-i128:128-f80:128-n8:16:32:64-S128"
target triple = "x86_64-pc-linux-gnu"

%struct.Abc_Frame_t_ = type { ptr, ptr, ptr, ptr, ptr, ptr, ptr, ptr, ptr, ptr, i32, i32, i32, i32, i32, ptr, float, float, i32, i32, ptr, ptr, ptr, double, double, ptr, ptr, ptr, ptr, ptr, ptr, ptr, ptr, ptr, ptr, ptr, ptr, float, ptr, i32, ptr, ptr, ptr, ptr, ptr, i32, i32, i32, i32, i32, i32, ptr, ptr, ptr, ptr, ptr, ptr, i32, i32, ptr, ptr, ptr, ptr, ptr, ptr, ptr, ptr, ptr, ptr, ptr, ptr, ptr, ptr, ptr, ptr, ptr, ptr, ptr, ptr, ptr, ptr, ptr, ptr, ptr, ptr, ptr, ptr, ptr, ptr }
%struct.SC_DontUse_ = type { i32, ptr }

@.str.22 = private unnamed_addr constant [3 x i8] c"rb\00", align 1
@.str.23 = private unnamed_addr constant [31 x i8] c"Cannot open input file \22%s\22. \0A\00", align 1
@.str.24 = private unnamed_addr constant [49 x i8] c"Reading SCL library from file \22%s\22 has failed. \0A\00", align 1

; Function Attrs: nounwind uwtable
define ptr @Scl_ReadLibraryFile(ptr noundef %0, ptr noundef %1, i32 noundef %2, i32 noundef %3, i32 %4, ptr %5) #0 {
  %7 = alloca ptr, align 8
  %8 = alloca %struct.SC_DontUse_, align 8
  %9 = alloca ptr, align 8
  %10 = alloca ptr, align 8
  %11 = alloca i32, align 4
  %12 = alloca i32, align 4
  %13 = alloca ptr, align 8
  %14 = alloca ptr, align 8
  %15 = alloca i32, align 4
  %16 = getelementptr inbounds nuw { i32, ptr }, ptr %8, i32 0, i32 0
  store i32 %4, ptr %16, align 8
  %17 = getelementptr inbounds nuw { i32, ptr }, ptr %8, i32 0, i32 1
  store ptr %5, ptr %17, align 8
  store ptr %0, ptr %9, align 8, !tbaa !3
  store ptr %1, ptr %10, align 8, !tbaa !56
  store i32 %2, ptr %11, align 4, !tbaa !29
  store i32 %3, ptr %12, align 4, !tbaa !29
  call void @llvm.lifetime.start.p0(i64 8, ptr %13) #12
  call void @llvm.lifetime.start.p0(i64 8, ptr %14) #12
  %18 = load ptr, ptr %10, align 8, !tbaa !56
  %19 = call noalias ptr @fopen(ptr noundef %18, ptr noundef @.str.22)
  store ptr %19, ptr %14, align 8, !tbaa !63
  %20 = icmp eq ptr %19, null
  br i1 %20, label %21, label %27

21:                                               ; preds = %6
  %22 = load ptr, ptr %9, align 8, !tbaa !3
  %23 = getelementptr inbounds nuw %struct.Abc_Frame_t_, ptr %22, i32 0, i32 21
  %24 = load ptr, ptr %23, align 8, !tbaa !59
  %25 = load ptr, ptr %10, align 8, !tbaa !56
  %26 = call i32 (ptr, ptr, ...) @fprintf(ptr noundef %24, ptr noundef @.str.23, ptr noundef %25) #12
  store ptr null, ptr %7, align 8
  store i32 1, ptr %15, align 4
  br label %48

27:                                               ; preds = %6
  %28 = load ptr, ptr %14, align 8, !tbaa !63
  %29 = call i32 @fclose(ptr noundef %28)
  %30 = load ptr, ptr %10, align 8, !tbaa !56
  %31 = load i32, ptr %11, align 4, !tbaa !29
  %32 = load i32, ptr %12, align 4, !tbaa !29
  %33 = getelementptr inbounds nuw { i32, ptr }, ptr %8, i32 0, i32 0
  %34 = load i32, ptr %33, align 8
  %35 = getelementptr inbounds nuw { i32, ptr }, ptr %8, i32 0, i32 1
  %36 = load ptr, ptr %35, align 8
  %37 = call ptr @Abc_SclReadLiberty(ptr noundef %30, i32 noundef %31, i32 noundef %32, i32 %34, ptr %36)
  store ptr %37, ptr %13, align 8, !tbaa !25
  %38 = load ptr, ptr %13, align 8, !tbaa !25
  %39 = icmp eq ptr %38, null
  br i1 %39, label %40, label %46

40:                                               ; preds = %27
  %41 = load ptr, ptr %9, align 8, !tbaa !3
  %42 = getelementptr inbounds nuw %struct.Abc_Frame_t_, ptr %41, i32 0, i32 21
  %43 = load ptr, ptr %42, align 8, !tbaa !59
  %44 = load ptr, ptr %10, align 8, !tbaa !56
  %45 = call i32 (ptr, ptr, ...) @fprintf(ptr noundef %43, ptr noundef @.str.24, ptr noundef %44) #12
  store ptr null, ptr %7, align 8
  store i32 1, ptr %15, align 4
  br label %48

46:                                               ; preds = %27
  %47 = load ptr, ptr %13, align 8, !tbaa !25
  store ptr %47, ptr %7, align 8
  store i32 1, ptr %15, align 4
  br label %48

48:                                               ; preds = %46, %40, %21
  call void @llvm.lifetime.end.p0(i64 8, ptr %14) #12
  call void @llvm.lifetime.end.p0(i64 8, ptr %13) #12
  %49 = load ptr, ptr %7, align 8
  ret ptr %49
}