; Function Attrs: nounwind uwtable
define ptr @Scl_ReadLibraryFile(ptr noundef readonly captures(none) %0, ptr noundef %1, i32 noundef %2, i32 noundef %3, i32 %4, ptr %5) local_unnamed_addr #0 {
  %7 = tail call noalias ptr @fopen(ptr noundef %1, ptr noundef nonnull @.str.22)
  %8 = icmp eq ptr %7, null
  br i1 %8, label %.sink.split, label %9

9:                                                ; preds = %6
  %10 = tail call i32 @fclose(ptr noundef nonnull %7)
  %11 = tail call ptr @Abc_SclReadLiberty(ptr noundef %1, i32 noundef %2, i32 noundef %3, i32 %4, ptr %5) #12
  %12 = icmp eq ptr %11, null
  br i1 %12, label %.sink.split, label %16

.sink.split:                                      ; preds = %9, %6
  %.str.24.sink = phi ptr [ @.str.23, %6 ], [ @.str.24, %9 ]
  %13 = getelementptr inbounds nuw i8, ptr %0, i64 136
  %14 = load ptr, ptr %13, align 8, !tbaa !84
  %15 = tail call i32 (ptr, ptr, ...) @fprintf(ptr noundef %14, ptr noundef nonnull %.str.24.sink, ptr noundef %1) #12
  br label %16

16:                                               ; preds = %.sink.split, %9
  %.0 = phi ptr [ %11, %9 ], [ null, %.sink.split ]
  ret ptr %.0
}